target datalayout = "e-m:e-p270:32:32-p271:32:32-p272:64:64-i64:64-i128:128-f80:128-n8:16:32:64-S128"
target triple = "x86_64-pc-linux-gnu"

%struct._packet_info = type { ptr, ptr, i32, i32, %struct.nstime_t, %struct.nstime_t, %struct.nstime_t, i8, ptr, ptr, ptr, ptr, %struct._address, %struct._address, %struct._address, %struct._address, %struct._address, %struct._address, i32, ptr, i8, [3 x i8], %struct.anon, i32, i32, i32, i32, ptr, i8, ptr, ptr, i16, i16, i32, i32, i16, i32, i32, ptr, ptr, ptr, i8, i8, i16, i16, i16, i32, i16, i16, ptr, ptr, ptr, ptr, ptr, i32, i32 }
%struct.nstime_t = type { i64, i32 }
%struct._address = type { i32, i32, ptr, ptr }
%struct.anon = type { i8, [3 x i8] }

@hf_x11_reply = internal global i32 0, align 4
@hf_x11_reply_sequencenumber = internal global i32 0, align 4
@hf_x11_replylength = internal global i32 0, align 4
@hf_x11_unused = internal global i32 0, align 4
@hf_x11_struct_xinput_InputClassInfo = internal global i32 0, align 4
@hf_x11_struct_xinput_InputClassInfo_class_id = internal global i32 0, align 4
@hf_x11_struct_xinput_InputClassInfo_event_type_base = internal global i32 0, align 4
@hf_x11_xinput_OpenDevice_reply_xi_reply_type = internal global i32 0, align 4
@hf_x11_xinput_OpenDevice_reply_num_classes = internal global i32 0, align 4
@ett_x11_rectangle = internal global i32 0, align 4
@.str.15439 = private unnamed_addr constant [12 x i8] c"-OpenDevice\00", align 1
@.str.15440 = private unnamed_addr constant [23 x i8] c"%d (xinput-OpenDevice)\00", align 1

; Function Attrs: null_pointer_is_valid sspstrong uwtable
define internal void @struct_xinput_InputClassInfo(ptr noundef %0, ptr noundef %1, ptr noundef %2, i32 noundef %3, i32 noundef %4) #1 {
  %6 = alloca ptr, align 8
  %7 = alloca ptr, align 8
  %8 = alloca ptr, align 8
  %9 = alloca i32, align 4
  %10 = alloca i32, align 4
  %11 = alloca i32, align 4
  %12 = alloca ptr, align 8
  %13 = alloca ptr, align 8
  store ptr %0, ptr %6, align 8
  store ptr %1, ptr %7, align 8
  store ptr %2, ptr %8, align 8
  store i32 %3, ptr %9, align 4
  store i32 %4, ptr %10, align 4
  call void @llvm.lifetime.start.p0(i64 4, ptr %11) #11
  store i32 0, ptr %11, align 4
  br label %14

14:                                               ; preds = %44, %5
  %15 = load i32, ptr %11, align 4
  %16 = load i32, ptr %10, align 4
  %17 = icmp slt i32 %15, %16
  br i1 %17, label %18, label %47

18:                                               ; preds = %14
  call void @llvm.lifetime.start.p0(i64 8, ptr %12) #11
  call void @llvm.lifetime.start.p0(i64 8, ptr %13) #11
  %19 = load ptr, ptr %8, align 8
  %20 = load i32, ptr @hf_x11_struct_xinput_InputClassInfo, align 4
  %21 = load ptr, ptr %6, align 8
  %22 = load ptr, ptr %7, align 8
  %23 = load i32, ptr %22, align 4
  %24 = call ptr @proto_tree_add_item(ptr noundef %19, i32 noundef %20, ptr noundef %21, i32 noundef %23, i32 noundef 2, i32 noundef 0)
  store ptr %24, ptr %12, align 8
  %25 = load ptr, ptr %12, align 8
  %26 = load i32, ptr @ett_x11_rectangle, align 4
  %27 = call ptr @proto_item_add_subtree(ptr noundef %25, i32 noundef %26)
  store ptr %27, ptr %13, align 8
  %28 = load ptr, ptr %6, align 8
  %29 = load ptr, ptr %7, align 8
  %30 = load ptr, ptr %13, align 8
  %31 = load i32, ptr @hf_x11_struct_xinput_InputClassInfo_class_id, align 4
  %32 = load i32, ptr %9, align 4
  %33 = call i32 @field8(ptr noundef %28, ptr noundef %29, ptr noundef %30, i32 noundef %31, i32 noundef %32)
  %34 = load ptr, ptr %13, align 8
  %35 = load i32, ptr @hf_x11_struct_xinput_InputClassInfo_event_type_base, align 4
  %36 = load ptr, ptr %6, align 8
  %37 = load ptr, ptr %7, align 8
  %38 = load i32, ptr %37, align 4
  %39 = load i32, ptr %9, align 4
  %40 = call ptr @proto_tree_add_item(ptr noundef %34, i32 noundef %35, ptr noundef %36, i32 noundef %38, i32 noundef 1, i32 noundef %39)
  %41 = load ptr, ptr %7, align 8
  %42 = load i32, ptr %41, align 4
  %43 = add i32 %42, 1
  store i32 %43, ptr %41, align 4
  call void @llvm.lifetime.end.p0(i64 8, ptr %13) #11
  call void @llvm.lifetime.end.p0(i64 8, ptr %12) #11
  br label %44

44:                                               ; preds = %18
  %45 = load i32, ptr %11, align 4
  %46 = add i32 %45, 1
  store i32 %46, ptr %11, align 4
  br label %14, !llvm.loop !140

47:                                               ; preds = %14
  call void @llvm.lifetime.end.p0(i64 4, ptr %11) #11
  ret void
}

; Function Attrs: null_pointer_is_valid sspstrong uwtable
define internal void @xinputOpenDevice_Reply(ptr noundef %0, ptr noundef %1, ptr noundef %2, ptr noundef %3, i32 noundef %4) #1 {
  %6 = alloca ptr, align 8
  %7 = alloca ptr, align 8
  %8 = alloca ptr, align 8
  %9 = alloca ptr, align 8
  %10 = alloca i32, align 4
  %11 = alloca i32, align 4
  %12 = alloca i32, align 4
  store ptr %0, ptr %6, align 8
  store ptr %1, ptr %7, align 8
  store ptr %2, ptr %8, align 8
  store ptr %3, ptr %9, align 8
  store i32 %4, ptr %10, align 4
  call void @llvm.lifetime.start.p0(i64 4, ptr %11) #11
  call void @llvm.lifetime.start.p0(i64 4, ptr %12) #11
  %13 = load ptr, ptr %7, align 8
  %14 = getelementptr inbounds nuw %struct._packet_info, ptr %13, i32 0, i32 1
  %15 = load ptr, ptr %14, align 8
  call void (ptr, i32, ptr, ...) @col_append_fstr(ptr noundef %15, i32 noundef 25, ptr noundef @.str.15439)
  %16 = load ptr, ptr %6, align 8
  %17 = load ptr, ptr %8, align 8
  %18 = load ptr, ptr %9, align 8
  %19 = load i32, ptr @hf_x11_reply, align 4
  %20 = load i32, ptr %10, align 4
  %21 = call i32 @field8(ptr noundef %16, ptr noundef %17, ptr noundef %18, i32 noundef %19, i32 noundef %20)
  %22 = load ptr, ptr %9, align 8
  %23 = load i32, ptr @hf_x11_xinput_OpenDevice_reply_xi_reply_type, align 4
  %24 = load ptr, ptr %6, align 8
  %25 = load ptr, ptr %8, align 8
  %26 = load i32, ptr %25, align 4
  %27 = load i32, ptr %10, align 4
  %28 = call ptr @proto_tree_add_item(ptr noundef %22, i32 noundef %23, ptr noundef %24, i32 noundef %26, i32 noundef 1, i32 noundef %27)
  %29 = load ptr, ptr %8, align 8
  %30 = load i32, ptr %29, align 4
  %31 = add i32 %30, 1
  store i32 %31, ptr %29, align 4
  %32 = load ptr, ptr %6, align 8
  %33 = load ptr, ptr %8, align 8
  %34 = load i32, ptr %33, align 4
  %35 = load i32, ptr %10, align 4
  %36 = call zeroext i16 @tvb_get_uint16(ptr noundef %32, i32 noundef %34, i32 noundef %35)
  %37 = zext i16 %36 to i32
  store i32 %37, ptr %11, align 4
  %38 = load ptr, ptr %9, align 8
  %39 = load i32, ptr @hf_x11_reply_sequencenumber, align 4
  %40 = load ptr, ptr %6, align 8
  %41 = load ptr, ptr %8, align 8
  %42 = load i32, ptr %41, align 4
  %43 = load i32, ptr %11, align 4
  %44 = load i32, ptr %11, align 4
  %45 = call ptr (ptr, i32, ptr, i32, i32, i32, ptr, ...) @proto_tree_add_uint_format_value(ptr noundef %38, i32 noundef %39, ptr noundef %40, i32 noundef %42, i32 noundef 2, i32 noundef %43, ptr noundef @.str.15440, i32 noundef %44)
  %46 = load ptr, ptr %8, align 8
  %47 = load i32, ptr %46, align 4
  %48 = add i32 %47, 2
  store i32 %48, ptr %46, align 4
  %49 = load ptr, ptr %9, align 8
  %50 = load i32, ptr @hf_x11_replylength, align 4
  %51 = load ptr, ptr %6, align 8
  %52 = load ptr, ptr %8, align 8
  %53 = load i32, ptr %52, align 4
  %54 = load i32, ptr %10, align 4
  %55 = call ptr @proto_tree_add_item(ptr noundef %49, i32 noundef %50, ptr noundef %51, i32 noundef %53, i32 noundef 4, i32 noundef %54)
  %56 = load ptr, ptr %8, align 8
  %57 = load i32, ptr %56, align 4
  %58 = add i32 %57, 4
  store i32 %58, ptr %56, align 4
  %59 = load ptr, ptr %6, align 8
  %60 = load ptr, ptr %8, align 8
  %61 = load i32, ptr %60, align 4
  %62 = call zeroext i8 @tvb_get_uint8(ptr noundef %59, i32 noundef %61)
  %63 = zext i8 %62 to i32
  store i32 %63, ptr %12, align 4
  %64 = load ptr, ptr %9, align 8
  %65 = load i32, ptr @hf_x11_xinput_OpenDevice_reply_num_classes, align 4
  %66 = load ptr, ptr %6, align 8
  %67 = load ptr, ptr %8, align 8
  %68 = load i32, ptr %67, align 4
  %69 = load i32, ptr %10, align 4
  %70 = call ptr @proto_tree_add_item(ptr noundef %64, i32 noundef %65, ptr noundef %66, i32 noundef %68, i32 noundef 1, i32 noundef %69)
  %71 = load ptr, ptr %8, align 8
  %72 = load i32, ptr %71, align 4
  %73 = add i32 %72, 1
  store i32 %73, ptr %71, align 4
  %74 = load ptr, ptr %9, align 8
  %75 = load i32, ptr @hf_x11_unused, align 4
  %76 = load ptr, ptr %6, align 8
  %77 = load ptr, ptr %8, align 8
  %78 = load i32, ptr %77, align 4
  %79 = call ptr @proto_tree_add_item(ptr noundef %74, i32 noundef %75, ptr noundef %76, i32 noundef %78, i32 noundef 23, i32 noundef 0)
  %80 = load ptr, ptr %8, align 8
  %81 = load i32, ptr %80, align 4
  %82 = add i32 %81, 23
  store i32 %82, ptr %80, align 4
  %83 = load ptr, ptr %6, align 8
  %84 = load ptr, ptr %8, align 8
  %85 = load ptr, ptr %9, align 8
  %86 = load i32, ptr %10, align 4
  %87 = load i32, ptr %12, align 4
  call void @struct_xinput_InputClassInfo(ptr noundef %83, ptr noundef %84, ptr noundef %85, i32 noundef %86, i32 noundef %87)
  %88 = load ptr, ptr %8, align 8
  %89 = load i32, ptr %88, align 4
  %90 = srem i32 %89, 4
  %91 = icmp ne i32 %90, 0
  br i1 %91, label %92, label %110

92:                                               ; preds = %5
  %93 = load ptr, ptr %9, align 8
  %94 = load i32, ptr @hf_x11_unused, align 4
  %95 = load ptr, ptr %6, align 8
  %96 = load ptr, ptr %8, align 8
  %97 = load i32, ptr %96, align 4
  %98 = load ptr, ptr %8, align 8
  %99 = load i32, ptr %98, align 4
  %100 = srem i32 %99, 4
  %101 = sub i32 4, %100
  %102 = call ptr @proto_tree_add_item(ptr noundef %93, i32 noundef %94, ptr noundef %95, i32 noundef %97, i32 noundef %101, i32 noundef 0)
  %103 = load ptr, ptr %8, align 8
  %104 = load i32, ptr %103, align 4
  %105 = srem i32 %104, 4
  %106 = sub i32 4, %105
  %107 = load ptr, ptr %8, align 8
  %108 = load i32, ptr %107, align 4
  %109 = add i32 %108, %106
  store i32 %109, ptr %107, align 4
  br label %110

110:                                              ; preds = %92, %5
  call void @llvm.lifetime.end.p0(i64 4, ptr %12) #11
  call void @llvm.lifetime.end.p0(i64 4, ptr %11) #11
  ret void
}