; Function Attrs: null_pointer_is_valid sspstrong uwtable
define internal void @xinputOpenDevice_Reply(ptr noundef %0, ptr noundef readonly captures(none) %1, ptr noundef captures(none) %2, ptr noundef %3, i32 noundef %4) #1 {
  %6 = getelementptr inbounds nuw i8, ptr %1, i64 8
  %7 = load ptr, ptr %6, align 8
  tail call void (ptr, i32, ptr, ...) @col_append_fstr(ptr noundef %7, i32 noundef 25, ptr noundef nonnull @.str.15439)
  %8 = load i32, ptr @hf_x11_reply, align 4
  %9 = tail call fastcc i32 @field8(ptr noundef %0, ptr noundef %2, ptr noundef %3, i32 noundef %8, i32 noundef %4)
  %10 = load i32, ptr @hf_x11_xinput_OpenDevice_reply_xi_reply_type, align 4
  %11 = load i32, ptr %2, align 4
  %12 = tail call ptr @proto_tree_add_item(ptr noundef %3, i32 noundef %10, ptr noundef %0, i32 noundef %11, i32 noundef 1, i32 noundef %4)
  %13 = load i32, ptr %2, align 4
  %14 = add i32 %13, 1
  store i32 %14, ptr %2, align 4
  %15 = tail call zeroext i16 @tvb_get_uint16(ptr noundef %0, i32 noundef %14, i32 noundef %4)
  %16 = zext i16 %15 to i32
  %17 = load i32, ptr @hf_x11_reply_sequencenumber, align 4
  %18 = load i32, ptr %2, align 4
  %19 = tail call ptr (ptr, i32, ptr, i32, i32, i32, ptr, ...) @proto_tree_add_uint_format_value(ptr noundef %3, i32 noundef %17, ptr noundef %0, i32 noundef %18, i32 noundef 2, i32 noundef %16, ptr noundef nonnull @.str.15440, i32 noundef %16)
  %20 = load i32, ptr %2, align 4
  %21 = add i32 %20, 2
  store i32 %21, ptr %2, align 4
  %22 = load i32, ptr @hf_x11_replylength, align 4
  %23 = tail call ptr @proto_tree_add_item(ptr noundef %3, i32 noundef %22, ptr noundef %0, i32 noundef %21, i32 noundef 4, i32 noundef %4)
  %24 = load i32, ptr %2, align 4
  %25 = add i32 %24, 4
  store i32 %25, ptr %2, align 4
  %26 = tail call zeroext i8 @tvb_get_uint8(ptr noundef %0, i32 noundef %25)
  %27 = zext i8 %26 to i32
  %28 = load i32, ptr @hf_x11_xinput_OpenDevice_reply_num_classes, align 4
  %29 = load i32, ptr %2, align 4
  %30 = tail call ptr @proto_tree_add_item(ptr noundef %3, i32 noundef %28, ptr noundef %0, i32 noundef %29, i32 noundef 1, i32 noundef %4)
  %31 = load i32, ptr %2, align 4
  %32 = add i32 %31, 1
  store i32 %32, ptr %2, align 4
  %33 = load i32, ptr @hf_x11_unused, align 4
  %34 = tail call ptr @proto_tree_add_item(ptr noundef %3, i32 noundef %33, ptr noundef %0, i32 noundef %32, i32 noundef 23, i32 noundef 0)
  %35 = load i32, ptr %2, align 4
  %36 = add i32 %35, 23
  store i32 %36, ptr %2, align 4
  %.not.i = icmp eq i8 %26, 0
  br i1 %.not.i, label %struct_xinput_InputClassInfo.exit, label %.lr.ph.i

.lr.ph.i:                                         ; preds = %5, %.lr.ph.i
  %37 = phi i32 [ %48, %.lr.ph.i ], [ %36, %5 ]
  %.015.i = phi i32 [ %49, %.lr.ph.i ], [ 0, %5 ]
  %38 = load i32, ptr @hf_x11_struct_xinput_InputClassInfo, align 4
  %39 = tail call ptr @proto_tree_add_item(ptr noundef %3, i32 noundef %38, ptr noundef %0, i32 noundef %37, i32 noundef 2, i32 noundef 0)
  %40 = load i32, ptr @ett_x11_rectangle, align 4
  %41 = tail call ptr @proto_item_add_subtree(ptr noundef %39, i32 noundef %40)
  %42 = load i32, ptr @hf_x11_struct_xinput_InputClassInfo_class_id, align 4
  %43 = tail call fastcc i32 @field8(ptr noundef %0, ptr noundef %2, ptr noundef %41, i32 noundef %42, i32 noundef %4)
  %44 = load i32, ptr @hf_x11_struct_xinput_InputClassInfo_event_type_base, align 4
  %45 = load i32, ptr %2, align 4
  %46 = tail call ptr @proto_tree_add_item(ptr noundef %41, i32 noundef %44, ptr noundef %0, i32 noundef %45, i32 noundef 1, i32 noundef %4)
  %47 = load i32, ptr %2, align 4
  %48 = add i32 %47, 1
  store i32 %48, ptr %2, align 4
  %49 = add nuw nsw i32 %.015.i, 1
  %exitcond.not.i = icmp eq i32 %49, %27
  br i1 %exitcond.not.i, label %struct_xinput_InputClassInfo.exit, label %.lr.ph.i, !llvm.loop !113

struct_xinput_InputClassInfo.exit:                ; preds = %.lr.ph.i, %5
  %50 = phi i32 [ %36, %5 ], [ %48, %.lr.ph.i ]
  %51 = srem i32 %50, 4
  %.not = icmp eq i32 %51, 0
  br i1 %.not, label %59, label %52

52:                                               ; preds = %struct_xinput_InputClassInfo.exit
  %53 = load i32, ptr @hf_x11_unused, align 4
  %54 = sub nsw i32 4, %51
  %55 = tail call ptr @proto_tree_add_item(ptr noundef %3, i32 noundef %53, ptr noundef %0, i32 noundef %50, i32 noundef %54, i32 noundef 0)
  %56 = load i32, ptr %2, align 4
  %57 = srem i32 %56, 4
  %reass.sub = add i32 %56, 4
  %58 = sub i32 %reass.sub, %57
  store i32 %58, ptr %2, align 4
  br label %59

59:                                               ; preds = %52, %struct_xinput_InputClassInfo.exit
  ret void
}